; Function Attrs: nounwind sspstrong uwtable
define internal i64 @pdu_marshal(ptr noundef %pdu, i64 noundef %offset, ptr noundef %fmt, ...) unnamed_addr #0 {
entry:
  %ap = alloca [1 x %struct.__va_list_tag], align 16
  call void @llvm.va_start.p0(ptr nonnull %ap)
  %s = getelementptr inbounds nuw i8, ptr %pdu, i64 24
  %0 = load ptr, ptr %s, align 8
  %transport = getelementptr inbounds nuw i8, ptr %0, i64 7280
  %1 = load ptr, ptr %transport, align 8
  %2 = load ptr, ptr %1, align 8
  %call = call i64 %2(ptr noundef %pdu, i64 noundef %offset, ptr noundef %fmt, ptr noundef nonnull %ap) #24
  call void @llvm.va_end.p0(ptr nonnull %ap)
  ret i64 %call
}